target datalayout = "e-m:e-p270:32:32-p271:32:32-p272:64:64-i64:64-i128:128-f80:128-n8:16:32:64-S128"
target triple = "x86_64-pc-linux-gnu"

%union.pthread_mutex_t = type { %struct.__pthread_mutex_s }
%struct.__pthread_mutex_s = type { i32, i32, i32, i32, i32, i16, i16, %struct.__pthread_internal_list }
%struct.__pthread_internal_list = type { ptr, ptr }
%union.pthread_cond_t = type { %struct.__pthread_cond_s }
%struct.__pthread_cond_s = type { %union.__atomic_wide_counter, %union.__atomic_wide_counter, [2 x i32], [2 x i32], i32, i32, [2 x i32] }
%union.__atomic_wide_counter = type { i64 }
%struct.srun_job = type { %struct.slurm_step_id_msg, i32, i32, ptr, i32, i32, i32, i32, ptr, ptr, ptr, ptr, i32, i32, i32, i16, i16, i16, i16, i32, %union.pthread_mutex_t, %union.pthread_cond_t, i32, ptr, ptr, ptr, ptr, ptr, ptr, i32, i16, i16, i16, ptr, ptr, ptr, ptr, i32, ptr, i32, ptr }
%struct.slurm_step_id_msg = type { i64, i32, i32, i32 }

@local_job_list = internal global ptr null, align 8
@.str.27 = private unnamed_addr constant [38 x i8] c"%s: local_job_list does not exist yet\00", align 1
@__func__._step_signal = private unnamed_addr constant [13 x i8] c"_step_signal\00", align 1
@.str.80 = private unnamed_addr constant [16 x i8] c"Terminating %ps\00", align 1

; Function Attrs: nounwind uwtable
define internal i32 @_step_signal(i32 noundef %0) #0 {
  %2 = alloca i32, align 4
  %3 = alloca i32, align 4
  %4 = alloca ptr, align 8
  %5 = alloca ptr, align 8
  %6 = alloca i32, align 4
  %7 = alloca i32, align 4
  %8 = alloca i32, align 4
  store i32 %0, ptr %3, align 4
  call void @llvm.lifetime.start.p0(i64 8, ptr %4) #10
  call void @llvm.lifetime.start.p0(i64 8, ptr %5) #10
  call void @llvm.lifetime.start.p0(i64 4, ptr %6) #10
  store i32 0, ptr %6, align 4
  call void @llvm.lifetime.start.p0(i64 4, ptr %7) #10
  %9 = load ptr, ptr @local_job_list, align 8
  %10 = icmp ne ptr %9, null
  br i1 %10, label %22, label %11

11:                                               ; preds = %1
  br label %12

12:                                               ; preds = %11
  br label %13

13:                                               ; preds = %12
  %14 = call i32 @get_log_level()
  %15 = icmp sge i32 %14, 5
  br i1 %15, label %16, label %17

16:                                               ; preds = %13
  call void (i32, ptr, ...) @log_var(i32 noundef 5, ptr noundef @.str.27, ptr noundef @__func__._step_signal)
  br label %17

17:                                               ; preds = %16, %13
  br label %18

18:                                               ; preds = %17
  br label %19

19:                                               ; preds = %18
  br label %20

20:                                               ; preds = %19
  br label %21

21:                                               ; preds = %20
  store i32 -1, ptr %2, align 4
  store i32 1, ptr %8, align 4
  br label %61

22:                                               ; preds = %1
  %23 = load ptr, ptr @local_job_list, align 8
  %24 = call ptr @list_iterator_create(ptr noundef %23)
  store ptr %24, ptr %5, align 8
  br label %25

25:                                               ; preds = %57, %22
  %26 = load ptr, ptr %5, align 8
  %27 = call ptr @list_next(ptr noundef %26)
  store ptr %27, ptr %4, align 8
  %28 = icmp ne ptr %27, null
  br i1 %28, label %29, label %58

29:                                               ; preds = %25
  br label %30

30:                                               ; preds = %29
  br label %31

31:                                               ; preds = %30
  %32 = call i32 @get_log_level()
  %33 = icmp sge i32 %32, 3
  br i1 %33, label %34, label %37

34:                                               ; preds = %31
  %35 = load ptr, ptr %4, align 8
  %36 = getelementptr inbounds nuw %struct.srun_job, ptr %35, i32 0, i32 0
  call void (i32, ptr, ...) @log_var(i32 noundef 3, ptr noundef @.str.80, ptr noundef %36)
  br label %37

37:                                               ; preds = %34, %31
  br label %38

38:                                               ; preds = %37
  br label %39

39:                                               ; preds = %38
  br label %40

40:                                               ; preds = %39
  br label %41

41:                                               ; preds = %40
  %42 = load ptr, ptr %4, align 8
  %43 = getelementptr inbounds nuw %struct.srun_job, ptr %42, i32 0, i32 0
  %44 = getelementptr inbounds nuw %struct.slurm_step_id_msg, ptr %43, i32 0, i32 1
  %45 = load i32, ptr %44, align 8
  %46 = load ptr, ptr %4, align 8
  %47 = getelementptr inbounds nuw %struct.srun_job, ptr %46, i32 0, i32 0
  %48 = getelementptr inbounds nuw %struct.slurm_step_id_msg, ptr %47, i32 0, i32 3
  %49 = load i32, ptr %48, align 8
  %50 = load i32, ptr %3, align 4
  %51 = trunc i32 %50 to i16
  %52 = call i32 @slurm_kill_job_step(i32 noundef %45, i32 noundef %49, i16 noundef zeroext %51, i16 noundef zeroext 0)
  store i32 %52, ptr %7, align 4
  %53 = load i32, ptr %7, align 4
  %54 = icmp ne i32 %53, 0
  br i1 %54, label %55, label %57

55:                                               ; preds = %41
  %56 = load i32, ptr %7, align 4
  store i32 %56, ptr %6, align 4
  br label %57

57:                                               ; preds = %55, %41
  br label %25, !llvm.loop !21

58:                                               ; preds = %25
  %59 = load ptr, ptr %5, align 8
  call void @list_iterator_destroy(ptr noundef %59)
  %60 = load i32, ptr %6, align 4
  store i32 %60, ptr %2, align 4
  store i32 1, ptr %8, align 4
  br label %61

61:                                               ; preds = %58, %21
  call void @llvm.lifetime.end.p0(i64 4, ptr %7) #10
  call void @llvm.lifetime.end.p0(i64 4, ptr %6) #10
  call void @llvm.lifetime.end.p0(i64 8, ptr %5) #10
  call void @llvm.lifetime.end.p0(i64 8, ptr %4) #10
  %62 = load i32, ptr %2, align 4
  ret i32 %62
}