; Function Attrs: nounwind uwtable
define internal fastcc i32 @_step_signal(i32 noundef range(i32 9, 992) %0) unnamed_addr #0 {
  %2 = load ptr, ptr @local_job_list, align 8
  %.not = icmp eq ptr %2, null
  br i1 %.not, label %3, label %7

3:                                                ; preds = %1
  %4 = tail call i32 @get_log_level() #17
  %5 = icmp sgt i32 %4, 4
  br i1 %5, label %6, label %23

6:                                                ; preds = %3
  tail call void (i32, ptr, ...) @log_var(i32 noundef 5, ptr noundef nonnull @.str.27, ptr noundef nonnull @__func__._step_signal) #17
  br label %23

7:                                                ; preds = %1
  %8 = tail call ptr @list_iterator_create(ptr noundef nonnull %2) #17
  %9 = tail call ptr @list_next(ptr noundef %8) #17
  %.not1315 = icmp eq ptr %9, null
  br i1 %.not1315, label %._crit_edge, label %.lr.ph

.lr.ph:                                           ; preds = %7
  %10 = trunc nuw nsw i32 %0 to i16
  br label %11

11:                                               ; preds = %.lr.ph, %16
  %12 = phi ptr [ %9, %.lr.ph ], [ %22, %16 ]
  %.0916 = phi i32 [ 0, %.lr.ph ], [ %spec.select, %16 ]
  %13 = tail call i32 @get_log_level() #17
  %14 = icmp sgt i32 %13, 2
  br i1 %14, label %15, label %16

15:                                               ; preds = %11
  tail call void (i32, ptr, ...) @log_var(i32 noundef 3, ptr noundef nonnull @.str.80, ptr noundef nonnull %12) #17
  br label %16

16:                                               ; preds = %15, %11
  %17 = getelementptr inbounds nuw i8, ptr %12, i64 8
  %18 = load i32, ptr %17, align 8
  %19 = getelementptr inbounds nuw i8, ptr %12, i64 16
  %20 = load i32, ptr %19, align 8
  %21 = tail call i32 @slurm_kill_job_step(i32 noundef %18, i32 noundef %20, i16 noundef zeroext %10, i16 noundef zeroext 0) #17
  %.not14 = icmp eq i32 %21, 0
  %spec.select = select i1 %.not14, i32 %.0916, i32 %21
  %22 = tail call ptr @list_next(ptr noundef %8) #17
  %.not13 = icmp eq ptr %22, null
  br i1 %.not13, label %._crit_edge, label %11, !llvm.loop !26

._crit_edge:                                      ; preds = %16, %7
  %.09.lcssa = phi i32 [ 0, %7 ], [ %spec.select, %16 ]
  tail call void @list_iterator_destroy(ptr noundef %8) #17
  br label %23

23:                                               ; preds = %3, %6, %._crit_edge
  %.0 = phi i32 [ %.09.lcssa, %._crit_edge ], [ -1, %6 ], [ -1, %3 ]
  ret i32 %.0
}